target datalayout = "e-m:e-p270:32:32-p271:32:32-p272:64:64-i64:64-i128:128-f80:128-n8:16:32:64-S128"
target triple = "x86_64-pc-linux-gnu"

%"class.pbrt::Sampler" = type { %"class.pbrt::TaggedPointer" }
%"class.pbrt::TaggedPointer" = type { i64 }
%"class.pstd::pmr::polymorphic_allocator" = type { ptr }

; Function Attrs: mustprogress uwtable
define linkonce_odr dso_local noundef ptr @_ZN4pstd3pmr15memory_resource8allocateEmm(ptr noundef nonnull align 8 dereferenceable(8) %0, i64 noundef %1, i64 noundef %2) #1 comdat align 2 {
  %4 = alloca ptr, align 8
  %5 = alloca ptr, align 8
  %6 = alloca i64, align 8
  %7 = alloca i64, align 8
  store ptr %0, ptr %5, align 8, !tbaa !45
  store i64 %1, ptr %6, align 8, !tbaa !58
  store i64 %2, ptr %7, align 8, !tbaa !58
  %8 = load ptr, ptr %5, align 8
  %9 = load i64, ptr %6, align 8, !tbaa !58
  %10 = icmp eq i64 %9, 0
  br i1 %10, label %11, label %12

11:                                               ; preds = %3
  store ptr null, ptr %4, align 8
  br label %19

12:                                               ; preds = %3
  %13 = load i64, ptr %6, align 8, !tbaa !58
  %14 = load i64, ptr %7, align 8, !tbaa !58
  %15 = load ptr, ptr %8, align 8, !tbaa !191
  %16 = getelementptr inbounds ptr, ptr %15, i64 2
  %17 = load ptr, ptr %16, align 8
  %18 = call noundef ptr %17(ptr noundef nonnull align 8 dereferenceable(8) %8, i64 noundef %13, i64 noundef %14)
  store ptr %18, ptr %4, align 8
  br label %19

19:                                               ; preds = %12, %11
  %20 = load ptr, ptr %4, align 8
  ret ptr %20
}

; Function Attrs: mustprogress nounwind uwtable
define linkonce_odr dso_local noundef ptr @_ZNK4pstd3pmr21polymorphic_allocatorISt4byteE8resourceEv(ptr noundef nonnull align 8 dereferenceable(8) %0) #3 comdat align 2 {
  %2 = alloca ptr, align 8
  store ptr %0, ptr %2, align 8, !tbaa !15
  %3 = load ptr, ptr %2, align 8
  %4 = getelementptr inbounds nuw %"class.pstd::pmr::polymorphic_allocator", ptr %3, i32 0, i32 0
  %5 = load ptr, ptr %4, align 8, !tbaa !291
  ret ptr %5
}

; Function Attrs: mustprogress uwtable
define linkonce_odr dso_local noundef ptr @_ZN4pstd3pmr21polymorphic_allocatorISt4byteE14allocate_bytesEmm(ptr noundef nonnull align 8 dereferenceable(8) %0, i64 noundef %1, i64 noundef %2) #1 comdat align 2 {
  %4 = alloca ptr, align 8
  %5 = alloca i64, align 8
  %6 = alloca i64, align 8
  store ptr %0, ptr %4, align 8, !tbaa !15
  store i64 %1, ptr %5, align 8, !tbaa !58
  store i64 %2, ptr %6, align 8, !tbaa !58
  %7 = load ptr, ptr %4, align 8
  %8 = call noundef ptr @_ZNK4pstd3pmr21polymorphic_allocatorISt4byteE8resourceEv(ptr noundef nonnull align 8 dereferenceable(8) %7)
  %9 = load i64, ptr %5, align 8, !tbaa !58
  %10 = load i64, ptr %6, align 8, !tbaa !58
  %11 = call noundef ptr @_ZN4pstd3pmr15memory_resource8allocateEmm(ptr noundef nonnull align 8 dereferenceable(8) %8, i64 noundef %9, i64 noundef %10)
  ret ptr %11
}

; Function Attrs: mustprogress nounwind uwtable
define linkonce_odr dso_local void @_ZN4pbrt13TaggedPointerIJNS_14PMJ02BNSamplerENS_18IndependentSamplerENS_17StratifiedSamplerENS_13HaltonSamplerENS_18PaddedSobolSamplerENS_12SobolSamplerENS_13ZSobolSamplerENS_10MLTSamplerENS_15DebugMLTSamplerEEEC2IS2_EEPT_(ptr noundef nonnull align 8 dereferenceable(8) %0, ptr noundef %1) unnamed_addr #3 comdat align 2 {
  %3 = alloca ptr, align 8
  %4 = alloca ptr, align 8
  %5 = alloca i64, align 8
  %6 = alloca i32, align 4
  store ptr %0, ptr %3, align 8, !tbaa !17
  store ptr %1, ptr %4, align 8, !tbaa !133
  %7 = load ptr, ptr %3, align 8
  %8 = getelementptr inbounds nuw %"class.pbrt::TaggedPointer", ptr %7, i32 0, i32 0
  store i64 0, ptr %8, align 8, !tbaa !20
  call void @llvm.lifetime.start.p0(i64 8, ptr %5) #21
  %9 = load ptr, ptr %4, align 8, !tbaa !133
  %10 = ptrtoint ptr %9 to i64
  store i64 %10, ptr %5, align 8, !tbaa !58
  br label %11

11:                                               ; preds = %2
  br label %12

12:                                               ; preds = %11
  br label %13

13:                                               ; preds = %12
  call void @llvm.lifetime.start.p0(i64 4, ptr %6) #21
  store i32 2, ptr %6, align 4, !tbaa !31
  %14 = load i64, ptr %5, align 8, !tbaa !58
  %15 = or i64 %14, 288230376151711744
  %16 = getelementptr inbounds nuw %"class.pbrt::TaggedPointer", ptr %7, i32 0, i32 0
  store i64 %15, ptr %16, align 8, !tbaa !20
  call void @llvm.lifetime.end.p0(i64 4, ptr %6) #21
  call void @llvm.lifetime.end.p0(i64 8, ptr %5) #21
  ret void
}

; Function Attrs: mustprogress nounwind uwtable
define linkonce_odr dso_local void @_ZN4pstd3pmr21polymorphic_allocatorISt4byteE9constructIN4pbrt18IndependentSamplerEJRS6_EEEvPT_DpOT0_(ptr noundef nonnull align 8 dereferenceable(8) %0, ptr noundef %1, ptr noundef nonnull align 8 dereferenceable(24) %2) #3 comdat align 2 {
  %4 = alloca ptr, align 8
  %5 = alloca ptr, align 8
  %6 = alloca ptr, align 8
  store ptr %0, ptr %4, align 8, !tbaa !15
  store ptr %1, ptr %5, align 8, !tbaa !133
  store ptr %2, ptr %6, align 8, !tbaa !133
  %7 = load ptr, ptr %5, align 8, !tbaa !133
  %8 = load ptr, ptr %6, align 8, !tbaa !133
  call void @llvm.memcpy.p0.p0.i64(ptr align 8 %7, ptr align 8 %8, i64 24, i1 false), !tbaa.struct !323
  ret void
}

; Function Attrs: mustprogress uwtable
define linkonce_odr dso_local noundef ptr @_ZN4pstd3pmr21polymorphic_allocatorISt4byteE15allocate_objectIN4pbrt18IndependentSamplerEEEPT_m(ptr noundef nonnull align 8 dereferenceable(8) %0, i64 noundef %1) #1 comdat align 2 {
  %3 = alloca ptr, align 8
  %4 = alloca i64, align 8
  store ptr %0, ptr %3, align 8, !tbaa !15
  store i64 %1, ptr %4, align 8, !tbaa !58
  %5 = load ptr, ptr %3, align 8
  %6 = load i64, ptr %4, align 8, !tbaa !58
  %7 = mul i64 %6, 24
  %8 = call noundef ptr @_ZN4pstd3pmr21polymorphic_allocatorISt4byteE14allocate_bytesEmm(ptr noundef nonnull align 8 dereferenceable(8) %5, i64 noundef %7, i64 noundef 8)
  ret ptr %8
}

; Function Attrs: inlinehint mustprogress uwtable
define linkonce_odr dso_local void @_ZN4pbrt7SamplerCI2NS_13TaggedPointerIJNS_14PMJ02BNSamplerENS_18IndependentSamplerENS_17StratifiedSamplerENS_13HaltonSamplerENS_18PaddedSobolSamplerENS_12SobolSamplerENS_13ZSobolSamplerENS_10MLTSamplerENS_15DebugMLTSamplerEEEEIS3_EEPT_(ptr noundef nonnull align 8 dereferenceable(8) %0, ptr noundef %1) unnamed_addr #7 comdat align 2 {
  %3 = alloca ptr, align 8
  %4 = alloca ptr, align 8
  store ptr %0, ptr %3, align 8, !tbaa !13
  store ptr %1, ptr %4, align 8, !tbaa !133
  %5 = load ptr, ptr %3, align 8
  %6 = load ptr, ptr %4, align 8, !tbaa !133
  call void @_ZN4pbrt13TaggedPointerIJNS_14PMJ02BNSamplerENS_18IndependentSamplerENS_17StratifiedSamplerENS_13HaltonSamplerENS_18PaddedSobolSamplerENS_12SobolSamplerENS_13ZSobolSamplerENS_10MLTSamplerENS_15DebugMLTSamplerEEEC2IS2_EEPT_(ptr noundef nonnull align 8 dereferenceable(8) %5, ptr noundef %6)
  ret void
}

; Function Attrs: mustprogress uwtable
define linkonce_odr dso_local noundef ptr @_ZN4pstd3pmr21polymorphic_allocatorISt4byteE10new_objectIN4pbrt18IndependentSamplerEJRS6_EEEPT_DpOT0_(ptr noundef nonnull align 8 dereferenceable(8) %0, ptr noundef nonnull align 8 dereferenceable(24) %1) #1 comdat align 2 {
  %3 = alloca ptr, align 8
  %4 = alloca ptr, align 8
  %5 = alloca ptr, align 8
  store ptr %0, ptr %3, align 8, !tbaa !15
  store ptr %1, ptr %4, align 8, !tbaa !133
  %6 = load ptr, ptr %3, align 8
  call void @llvm.lifetime.start.p0(i64 8, ptr %5) #21
  %7 = call noundef ptr @_ZN4pstd3pmr21polymorphic_allocatorISt4byteE15allocate_objectIN4pbrt18IndependentSamplerEEEPT_m(ptr noundef nonnull align 8 dereferenceable(8) %6, i64 noundef 1)
  store ptr %7, ptr %5, align 8, !tbaa !133
  %8 = load ptr, ptr %5, align 8, !tbaa !133
  %9 = load ptr, ptr %4, align 8, !tbaa !133
  call void @_ZN4pstd3pmr21polymorphic_allocatorISt4byteE9constructIN4pbrt18IndependentSamplerEJRS6_EEEvPT_DpOT0_(ptr noundef nonnull align 8 dereferenceable(8) %6, ptr noundef %8, ptr noundef nonnull align 8 dereferenceable(24) %9)
  %10 = load ptr, ptr %5, align 8, !tbaa !133
  call void @llvm.lifetime.end.p0(i64 8, ptr %5) #21
  ret ptr %10
}

; Function Attrs: mustprogress uwtable
define dso_local void @_ZN4pbrt18IndependentSampler5CloneEN4pstd3pmr21polymorphic_allocatorISt4byteEE(ptr dead_on_unwind noalias writable sret(%"class.pbrt::Sampler") align 8 %0, ptr noundef nonnull align 8 dereferenceable(24) %1, ptr %2) #1 align 2 {
  %4 = alloca ptr, align 8
  %5 = alloca %"class.pstd::pmr::polymorphic_allocator", align 8
  %6 = alloca ptr, align 8
  store ptr %0, ptr %4, align 8
  %7 = getelementptr inbounds nuw %"class.pstd::pmr::polymorphic_allocator", ptr %5, i32 0, i32 0
  store ptr %2, ptr %7, align 8
  store ptr %1, ptr %6, align 8, !tbaa !133
  %8 = load ptr, ptr %6, align 8
  %9 = call noundef ptr @_ZN4pstd3pmr21polymorphic_allocatorISt4byteE10new_objectIN4pbrt18IndependentSamplerEJRS6_EEEPT_DpOT0_(ptr noundef nonnull align 8 dereferenceable(8) %5, ptr noundef nonnull align 8 dereferenceable(24) %8)
  call void @_ZN4pbrt7SamplerCI2NS_13TaggedPointerIJNS_14PMJ02BNSamplerENS_18IndependentSamplerENS_17StratifiedSamplerENS_13HaltonSamplerENS_18PaddedSobolSamplerENS_12SobolSamplerENS_13ZSobolSamplerENS_10MLTSamplerENS_15DebugMLTSamplerEEEEIS3_EEPT_(ptr noundef nonnull align 8 dereferenceable(8) %0, ptr noundef %9)
  ret void
}