; Function Attrs: mustprogress uwtable
define dso_local void @_ZN4pbrt18IndependentSampler5CloneEN4pstd3pmr21polymorphic_allocatorISt4byteEE(ptr dead_on_unwind noalias writable writeonly sret(%"class.pbrt::Sampler") align 8 captures(none) initializes((0, 8)) %0, ptr noundef nonnull readonly align 8 captures(none) dereferenceable(24) %1, ptr %2) local_unnamed_addr #0 align 2 {
  %4 = load ptr, ptr %2, align 8, !tbaa !15
  %5 = getelementptr inbounds nuw i8, ptr %4, i64 16
  %6 = load ptr, ptr %5, align 8
  %7 = tail call noundef ptr %6(ptr noundef nonnull align 8 dereferenceable(8) %2, i64 noundef 24, i64 noundef 8)
  tail call void @llvm.memcpy.p0.p0.i64(ptr noundef nonnull align 8 dereferenceable(24) %7, ptr noundef nonnull align 8 dereferenceable(24) %1, i64 24, i1 false), !tbaa.struct !27
  %8 = ptrtoint ptr %7 to i64
  %9 = or i64 %8, 288230376151711744
  store i64 %9, ptr %0, align 8, !tbaa !4
  ret void
}